EXPORTS
    _ZN6NuiLib10ACosScalar11GetTypeNameEv @1
    _ZN6NuiLib10ACosScalar14CalculateValueEv @2
    _ZN6NuiLib10ACosScalarC1Ev @3
    _ZN6NuiLib10ACosScalarC2Ev @4
    _ZN6NuiLib10IComponent11GetTypeNameEv @5
    _ZN6NuiLib10IComponent14FactoryUpdatedEv @6
    _ZN6NuiLib10IComponent7GetNameEv @7
    _ZN6NuiLib10IComponent7GetTypeEv @8
    _ZN6NuiLib10IComponent7SetNameESs @9
    _ZN6NuiLib10IComponent8GetCNameEv @10
    _ZN6NuiLib10IComponentC1ESsSs @11
    _ZN6NuiLib10IComponentC2ESsSs @12
    _ZN6NuiLib10IComponentD0Ev @13
    _ZN6NuiLib10IComponentD1Ev @14
    _ZN6NuiLib10IComponentD2Ev @15
    _ZN6NuiLib10ICondition11GetTypeNameEv @16
    _ZN6NuiLib10ICondition14CalculateValueEv @17
    _ZN6NuiLib10ICondition3GetEv @18
    _ZN6NuiLib10ICondition3SetEb @19
    _ZN6NuiLib10ICondition5ToXMLEv @20
    _ZN6NuiLib10ICondition6OnTrueESt8functionIFvPNS_11IObservableEEE @21
    _ZN6NuiLib10ICondition7ChangedEPNS_11IObservableE @22
    _ZN6NuiLib10ICondition7LoadXMLESs @23
    _ZN6NuiLib10ICondition7OnFalseESt8functionIFvPNS_11IObservableEEE @24
    _ZN6NuiLib10ICondition8ToStringESs @25
    _ZN6NuiLib10ICondition8ToStringEi @26
    _ZN6NuiLib10ICondition8ToStringEv @27
    _ZN6NuiLib10IConditionC1ESs @28
    _ZN6NuiLib10IConditionC1Eb @29
    _ZN6NuiLib10IConditionC1Ev @30
    _ZN6NuiLib10IConditionC2ESs @31
    _ZN6NuiLib10IConditionC2Eb @32
    _ZN6NuiLib10IConditionC2Ev @33
    _ZN6NuiLib10IConditiondeEv @34
    _ZN6NuiLib10NuiFactoryEv @35
    _ZN6NuiLib10constrainPEPNS_7IScalarES1_S1_S1_b @36
    _ZN6NuiLib10constrainPEPNS_7IScalarES1_S1_fb @37
    _ZN6NuiLib10constrainPEPNS_7IScalarES1_fS1_b @38
    _ZN6NuiLib10constrainPEPNS_7IScalarES1_ffb @39
    _ZN6NuiLib10constrainPEPNS_7IScalarEfS1_S1_b @40
    _ZN6NuiLib10constrainPEPNS_7IScalarEfS1_fb @41
    _ZN6NuiLib10constrainPEPNS_7IScalarEffS1_b @42
    _ZN6NuiLib10constrainPEPNS_7IScalarEfffb @43
    _ZN6NuiLib10differenceEN2cv7Point3_IfEEPNS_7IVectorE @44
    _ZN6NuiLib10differenceEPNS_7IScalarES1_ @45
    _ZN6NuiLib10differenceEPNS_7IScalarEf @46
    _ZN6NuiLib10differenceEPNS_7IVectorEN2cv7Point3_IfEE @47
    _ZN6NuiLib10differenceEPNS_7IVectorES1_ @48
    _ZN6NuiLib10differenceEPNS_7IVectorEf @49
    _ZN6NuiLib10differenceEfPNS_7IScalarE @50
    _ZN6NuiLib10differenceEfPNS_7IVectorE @51
    _ZN6NuiLib10intersectPEPNS_7IVectorES1_S1_S1_ @52
    _ZN6NuiLib10magnitudePEPNS_7IVectorE @53
    _ZN6NuiLib10normalizePEPNS_7IScalarE @54
    _ZN6NuiLib10normalizePEPNS_7IScalarES1_ @55
    _ZN6NuiLib10normalizePEPNS_7IScalarEf @56
    _ZN6NuiLib10normalizePEPNS_7IVectorE @57
    _ZN6NuiLib10pLessEqualEPNS_7IScalarES1_ @58
    _ZN6NuiLib10pLessEqualEPNS_7IScalarEf @59
    _ZN6NuiLib10pLessEqualEfPNS_7IScalarE @60
    _ZN6NuiLib10planeDotsPEPNS_7IVectorES1_ @61
    _ZN6NuiLib11CrossVector11GetTypeNameEv @62
    _ZN6NuiLib11CrossVector14CalculateValueEv @63
    _ZN6NuiLib11CrossVectorC1Ev @64
    _ZN6NuiLib11CrossVectorC2Ev @65
    _ZN6NuiLib11DeltaScalar11GetTypeNameEv @66
    _ZN6NuiLib11DeltaScalar14CalculateValueEv @67
    _ZN6NuiLib11DeltaScalarC1Ev @68
    _ZN6NuiLib11DeltaScalarC2Ev @69
    _ZN6NuiLib11DeltaVector11GetTypeNameEv @70
    _ZN6NuiLib11DeltaVector14CalculateValueEv @71
    _ZN6NuiLib11DeltaVectorC1Ev @72
    _ZN6NuiLib11DeltaVectorC2Ev @73
    _ZN6NuiLib11INuiFactoryC1ESsSs @74
    _ZN6NuiLib11INuiFactoryC2ESsSs @75
    _ZN6NuiLib11INuiFactoryD0Ev @76
    _ZN6NuiLib11INuiFactoryD1Ev @77
    _ZN6NuiLib11INuiFactoryD2Ev @78
    _ZN6NuiLib11IObservable11AddListenerEPNS_9IObserverE @79
    _ZN6NuiLib11IObservable11AddListenerESt8functionIFvPS0_EE @80
    _ZN6NuiLib11IObservable14RemoveListenerEPNS_9IObserverE @81
    _ZN6NuiLib11IObservable7TriggerEv @82
    _ZN6NuiLib11IObservableD0Ev @83
    _ZN6NuiLib11IObservableD1Ev @84
    _ZN6NuiLib11IObservableD2Ev @85
    _ZN6NuiLib11JointVector11GetTypeNameEv @86
    _ZN6NuiLib11JointVector8GetJointEv @87
    _ZN6NuiLib11JointVectorC1ESs @88
    _ZN6NuiLib11JointVectorC1ESsSs @89
    _ZN6NuiLib11JointVectorC2ESs @90
    _ZN6NuiLib11JointVectorC2ESsSs @91
    _ZN6NuiLib11KinectJoint11GetTypeNameEv @92
    _ZN6NuiLib11KinectJoint13IndexFromNameESs @93
    _ZN6NuiLib11KinectJoint13NameFromIndexE28_NUI_SKELETON_POSITION_INDEX @94
    _ZN6NuiLib11KinectJoint5ToXMLEv @95
    _ZN6NuiLib11KinectJoint6UpdateEP18_NUI_SKELETON_DATA @96
    _ZN6NuiLib11KinectJoint6UpdateEv @97
    _ZN6NuiLib11KinectJoint7LoadXMLESs @98
    _ZN6NuiLib11KinectJoint8SetIndexE28_NUI_SKELETON_POSITION_INDEX @99
    _ZN6NuiLib11KinectJoint8SetJointESs @100
    _ZN6NuiLib11KinectJointC1E28_NUI_SKELETON_POSITION_INDEX @101
    _ZN6NuiLib11KinectJointC1Ev @102
    _ZN6NuiLib11KinectJointC2E28_NUI_SKELETON_POSITION_INDEX @103
    _ZN6NuiLib11KinectJointC2Ev @104
    _ZN6NuiLib11OrCondition11GetTypeNameEv @105
    _ZN6NuiLib11OrConditionC1Ev @106
    _ZN6NuiLib11OrConditionC2Ev @107
    _ZN6NuiLib11pNotEqualToEN2cv7Point3_IfEEPNS_7IVectorE @108
    _ZN6NuiLib11pNotEqualToEPNS_7IScalarES1_ @109
    _ZN6NuiLib11pNotEqualToEPNS_7IScalarEf @110
    _ZN6NuiLib11pNotEqualToEPNS_7IVectorEN2cv7Point3_IfEE @111
    _ZN6NuiLib11pNotEqualToEPNS_7IVectorES1_ @112
    _ZN6NuiLib11pNotEqualToEPNS_7IVectorEf @113
    _ZN6NuiLib11pNotEqualToEfPNS_7IScalarE @114
    _ZN6NuiLib11pNotEqualToEfPNS_7IVectorE @115
    _ZN6NuiLib12AndCondition11GetTypeNameEv @116
    _ZN6NuiLib12AndConditionC1Ev @117
    _ZN6NuiLib12AndConditionC2Ev @118
    _ZN6NuiLib12InvertScalar11GetTypeNameEv @119
    _ZN6NuiLib12InvertScalar12GetConditionEv @120
    _ZN6NuiLib12InvertScalar12SetConditionEPNS_10IConditionE @121
    _ZN6NuiLib12InvertScalar14CalculateValueEv @122
    _ZN6NuiLib12InvertScalarC1Ev @123
    _ZN6NuiLib12InvertScalarC2Ev @124
    _ZN6NuiLib12NotCondition11GetTypeNameEv @125
    _ZN6NuiLib12NotCondition12GetConditionEv @126
    _ZN6NuiLib12NotCondition12SetConditionEPNS_10IConditionE @127
    _ZN6NuiLib12NotCondition14CalculateValueEv @128
    _ZN6NuiLib12NotCondition18IsMultiConditionalEv @129
    _ZN6NuiLib12NotConditionC1Ev @130
    _ZN6NuiLib12NotConditionC2Ev @131
    _ZN6NuiLib12ScalarVector14CalculateValueEv @132
    _ZN6NuiLib12ScalarVector4SetXEPNS_7IScalarE @133
    _ZN6NuiLib12ScalarVector4SetXEf @134
    _ZN6NuiLib12ScalarVector4SetYEPNS_7IScalarE @135
    _ZN6NuiLib12ScalarVector4SetYEf @136
    _ZN6NuiLib12ScalarVector4SetZEPNS_7IScalarE @137
    _ZN6NuiLib12ScalarVector4SetZEf @138
    _ZN6NuiLib12ScalarVector7GetNameEv @139
    _ZN6NuiLib12ScalarVectorC1Ev @140
    _ZN6NuiLib12ScalarVectorC2Ev @141
    _ZN6NuiLib12VectorScalar11GetTypeNameEv @142
    _ZN6NuiLib12VectorScalar12GetComponentEv @143
    _ZN6NuiLib12VectorScalar12SetComponentEc @144
    _ZN6NuiLib12VectorScalar14CalculateValueEv @145
    _ZN6NuiLib12VectorScalarC1Ev @146
    _ZN6NuiLib12VectorScalarC2Ev @147
    _ZN6NuiLib13FistCondition11GetTypeNameEv @148
    _ZN6NuiLib13FistCondition14CalculateValueEv @149
    _ZN6NuiLib13FistCondition7SetHandEPNS_13HandProcessorE @150
    _ZN6NuiLib13FistConditionC1Ev @151
    _ZN6NuiLib13FistConditionC2Ev @152
    _ZN6NuiLib13HandProcessor11GetHullAreaEv @153
    _ZN6NuiLib13HandProcessor12GetCurveAreaEv @154
    _ZN6NuiLib13HandProcessor12GetHandRatioEv @155
    _ZN6NuiLib13HandProcessor12adjustPointsEiSt6vectorIN2cv6Point_IiEESaIS4_EE @156
    _ZN6NuiLib13HandProcessor12displayShiftEiN2cv6Point_IiEE @157
    _ZN6NuiLib13HandProcessor13HandleNoInputEv @158
    _ZN6NuiLib13HandProcessor13IsInitialisedEv @159
    _ZN6NuiLib13HandProcessor13thresholdHandEN2cv3MatENS1_6Point_IiEEtii @160
    _ZN6NuiLib13HandProcessor4InitEb @161
    _ZN6NuiLib13HandProcessor7ChangedEPNS_11IObservableE @162
    _ZN6NuiLib13HandProcessor8WasFoundEv @163
    _ZN6NuiLib13HandProcessorC1Ev @164
    _ZN6NuiLib13HandProcessorC2Ev @165
    _ZN6NuiLib13HoldCondition11GetTypeNameEv @166
    _ZN6NuiLib13HoldCondition12SetConditionEPNS_10IConditionE @167
    _ZN6NuiLib13HoldCondition14CalculateValueEv @168
    _ZN6NuiLib13HoldConditionC1Ev @169
    _ZN6NuiLib13HoldConditionC2Ev @170
    _ZN6NuiLib13KinectFactory10InitEventsEv @171
    _ZN6NuiLib13KinectFactory11EnableDepthEb @172
    _ZN6NuiLib13KinectFactory11GetAutoPollEv @173
    _ZN6NuiLib13KinectFactory11HasSkeletonEv @174
    _ZN6NuiLib13KinectFactory11SetAutoPollEb @175
    _ZN6NuiLib13KinectFactory12EnableColourEb @176
    _ZN6NuiLib13KinectFactory12ProcessDepthEP16_NUI_IMAGE_FRAME @177
    _ZN6NuiLib13KinectFactory13GetDebugFrameEv @178
    _ZN6NuiLib13KinectFactory13GetNuiDevicesEv @179
    _ZN6NuiLib13KinectFactory13ProcessColourEP16_NUI_IMAGE_FRAME @180
    _ZN6NuiLib13KinectFactory14EnableSkeletonEb @181
    _ZN6NuiLib13KinectFactory15DepthToSkeletonEN2cv6Point_IiEE @182
    _ZN6NuiLib13KinectFactory15ProcessSkeletonEP18_NUI_SKELETON_DATA @183
    _ZN6NuiLib13KinectFactory15SkeletonToDepthENS_6VectorE @184
    _ZN6NuiLib13KinectFactory16AddDepthListenerEPNS_9IListenerI16_NUI_IMAGE_FRAMEEE @185
    _ZN6NuiLib13KinectFactory16ColourToSkeletonEN2cv6Point_IiEE @186
    _ZN6NuiLib13KinectFactory16ProcessSkeletonsER19_NUI_SKELETON_FRAME @187
    _ZN6NuiLib13KinectFactory16SkeletonToColourENS_6VectorE @188
    _ZN6NuiLib13KinectFactory17Nui_ProcessThreadEPv@4 @189
    _ZN6NuiLib13KinectFactory17Nui_ProcessThreadEv@4 @190
    _ZN6NuiLib13KinectFactory19AddSkeletonListenerEPNS_9IListenerI18_NUI_SKELETON_DATAEE @191
    _ZN6NuiLib13KinectFactory19ProcessLostSkeletonEv @192
    _ZN6NuiLib13KinectFactory4InitEv @193
    _ZN6NuiLib13KinectFactory4PollEv @194
    _ZN6NuiLib13KinectFactory4StopEv @195
    _ZN6NuiLib13KinectFactory5StartEv @196
    _ZN6NuiLib13KinectFactory5ToXMLEv @197
    _ZN6NuiLib13KinectFactory7LoadXMLESs @198
    _ZN6NuiLib13KinectFactory8GetDepthEv @199
    _ZN6NuiLib13KinectFactory8HasDepthEv @200
    _ZN6NuiLib13KinectFactory8TriggersEv @201
    _ZN6NuiLib13KinectFactory9GetColourEv @202
    _ZN6NuiLib13KinectFactory9HasColourEv @203
    _ZN6NuiLib13KinectFactoryC1Ev @204
    _ZN6NuiLib13KinectFactoryC2Ev @205
    _ZN6NuiLib13KinectFactoryD0Ev @206
    _ZN6NuiLib13KinectFactoryD1Ev @207
    _ZN6NuiLib13KinectFactoryD2Ev @208
    _ZN6NuiLib13LessCondition11GetTypeNameEv @209
    _ZN6NuiLib13LessConditionC1Ev @210
    _ZN6NuiLib13LessConditionC2Ev @211
    _ZN6NuiLib13PartialVector11GetTypeNameEv @212
    _ZN6NuiLib13PartialVector14CalculateValueEv @213
    _ZN6NuiLib13PartialVector4UseXEb @214
    _ZN6NuiLib13PartialVector4UseYEb @215
    _ZN6NuiLib13PartialVector4UseZEb @216
    _ZN6NuiLib13PartialVectorC1Ev @217
    _ZN6NuiLib13PartialVectorC2Ev @218
    _ZN6NuiLib13ProductScalar11GetTypeNameEv @219
    _ZN6NuiLib13ProductScalarC1Ev @220
    _ZN6NuiLib13ProductScalarC2Ev @221
    _ZN6NuiLib13ProductVector11GetTypeNameEv @222
    _ZN6NuiLib13ProductVectorC1Ev @223
    _ZN6NuiLib13ProductVectorC2Ev @224
    _ZN6NuiLib13ScalarOperandC1EPNS_7IScalarE @225
    _ZN6NuiLib13ScalarOperandC1Ef @226
    _ZN6NuiLib13ScalarOperandC1Ev @227
    _ZN6NuiLib13ScalarOperandC2EPNS_7IScalarE @228
    _ZN6NuiLib13ScalarOperandC2Ef @229
    _ZN6NuiLib13ScalarOperandC2Ev @230
    _ZN6NuiLib13SkeletonPointC1Ellt @231
    _ZN6NuiLib13SkeletonPointC2Ellt @232
    _ZN6NuiLib13TrackerScalar14CalculateValueEv @233
    _ZN6NuiLib13TrackerScalar6UpdateEv @234
    _ZN6NuiLib13TrackerScalarC1ESsiffi @235
    _ZN6NuiLib13TrackerScalarC2ESsiffi @236
    _ZN6NuiLib13VectorOperandC1EN2cv7Point3_IfEE @237
    _ZN6NuiLib13VectorOperandC1EPNS_7IVectorE @238
    _ZN6NuiLib13VectorOperandC1Ef @239
    _ZN6NuiLib13VectorOperandC1Ev @240
    _ZN6NuiLib13VectorOperandC2EN2cv7Point3_IfEE @241
    _ZN6NuiLib13VectorOperandC2EPNS_7IVectorE @242
    _ZN6NuiLib13VectorOperandC2Ef @243
    _ZN6NuiLib13VectorOperandC2Ev @244
    _ZN6NuiLib13pGreaterEqualEPNS_7IScalarES1_ @245
    _ZN6NuiLib13pGreaterEqualEPNS_7IScalarEf @246
    _ZN6NuiLib13pGreaterEqualEfPNS_7IScalarE @247
    _ZN6NuiLib14ClickCondition11GetTypeNameEv @248
    _ZN6NuiLib14ClickCondition12SetConditionEPNS_10IConditionE @249
    _ZN6NuiLib14ClickCondition14CalculateValueEv @250
    _ZN6NuiLib14ClickCondition8GetValueEv @251
    _ZN6NuiLib14ClickConditionC1Ev @252
    _ZN6NuiLib14ClickConditionC2Ev @253
    _ZN6NuiLib14EqualCondition11GetTypeNameEv @254
    _ZN6NuiLib14EqualConditionC1Ev @255
    _ZN6NuiLib14EqualConditionC2Ev @256
    _ZN6NuiLib14LogicCondition14CalculateValueEv @257
    _ZN6NuiLib14LogicCondition14FactoryUpdatedEv @258
    _ZN6NuiLib14LogicCondition5ValueEv @259
    _ZN6NuiLib14LogicConditionC1ENS_8OperatorE @260
    _ZN6NuiLib14LogicConditionC2ENS_8OperatorE @261
    _ZN6NuiLib14LogicConditionD0Ev @262
    _ZN6NuiLib14LogicConditionD1Ev @263
    _ZN6NuiLib14LogicConditionD2Ev @264
    _ZN6NuiLib14MomentumVector11GetTypeNameEv @265
    _ZN6NuiLib14MomentumVector12SetConditionEPNS_10IConditionE @266
    _ZN6NuiLib14MomentumVector12SetDecrementEf @267
    _ZN6NuiLib14MomentumVector12SetThresholdEf @268
    _ZN6NuiLib14MomentumVector14CalculateValueEv @269
    _ZN6NuiLib14MomentumVector14FactoryUpdatedEv @270
    _ZN6NuiLib14MomentumVector9SetVectorEPNS_7IVectorE @271
    _ZN6NuiLib14MomentumVectorC1Ev @272
    _ZN6NuiLib14MomentumVectorC2Ev @273
    _ZN6NuiLib14QuotientScalar11GetTypeNameEv @274
    _ZN6NuiLib14QuotientScalarC1Ev @275
    _ZN6NuiLib14QuotientScalarC2Ev @276
    _ZN6NuiLib14QuotientVector11GetTypeNameEv @277
    _ZN6NuiLib14QuotientVectorC1Ev @278
    _ZN6NuiLib14QuotientVectorC2Ev @279
    _ZN6NuiLib14SnapshotVector11GetTypeNameEv @280
    _ZN6NuiLib14SnapshotVector12SetConditionEPNS_10IConditionE @281
    _ZN6NuiLib14SnapshotVector14CalculateValueEv @282
    _ZN6NuiLib14SnapshotVector9SetVectorEPNS_7IVectorE @283
    _ZN6NuiLib14SnapshotVectorC1Ev @284
    _ZN6NuiLib14SnapshotVectorC2Ev @285
    _ZN6NuiLib16ArithmeticScalar14CalculateValueEv @286
    _ZN6NuiLib16ArithmeticScalar14FactoryUpdatedEv @287
    _ZN6NuiLib16ArithmeticScalar5ValueEv @288
    _ZN6NuiLib16ArithmeticScalarC1ENS_8OperatorE @289
    _ZN6NuiLib16ArithmeticScalarC2ENS_8OperatorE @290
    _ZN6NuiLib16ArithmeticScalarD0Ev @291
    _ZN6NuiLib16ArithmeticScalarD1Ev @292
    _ZN6NuiLib16ArithmeticScalarD2Ev @293
    _ZN6NuiLib16ArithmeticVector11SetOperand1Ef @294
    _ZN6NuiLib16ArithmeticVector11SetOperand2Ef @295
    _ZN6NuiLib16ArithmeticVector14CalculateValueEv @296
    _ZN6NuiLib16ArithmeticVector14FactoryUpdatedEv @297
    _ZN6NuiLib16ArithmeticVector5ValueEv @298
    _ZN6NuiLib16ArithmeticVectorC1ENS_8OperatorE @299
    _ZN6NuiLib16ArithmeticVectorC2ENS_8OperatorE @300
    _ZN6NuiLib16ArithmeticVectorD0Ev @301
    _ZN6NuiLib16ArithmeticVectorD1Ev @302
    _ZN6NuiLib16ArithmeticVectorD2Ev @303
    _ZN6NuiLib16DifferenceScalar11GetTypeNameEv @304
    _ZN6NuiLib16DifferenceScalarC1Ev @305
    _ZN6NuiLib16DifferenceScalarC2Ev @306
    _ZN6NuiLib16DifferenceVector11GetTypeNameEv @307
    _ZN6NuiLib16DifferenceVectorC1Ev @308
    _ZN6NuiLib16DifferenceVectorC2Ev @309
    _ZN6NuiLib16ExtensionFactoryEv @310
    _ZN6NuiLib16GreaterCondition11GetTypeNameEv @311
    _ZN6NuiLib16GreaterConditionC1Ev @312
    _ZN6NuiLib16GreaterConditionC2Ev @313
    _ZN6NuiLib16NormalizedVector14CalculateValueEv @314
    _ZN6NuiLib16NormalizedVector7GetNameEv @315
    _ZN6NuiLib16NormalizedVectorC1EPNS_7IVectorE @316
    _ZN6NuiLib16NormalizedVectorC1Ev @317
    _ZN6NuiLib16NormalizedVectorC2EPNS_7IVectorE @318
    _ZN6NuiLib16NormalizedVectorC2Ev @319
    _ZN6NuiLib16ProjectionScalar11GetTypeNameEv @320
    _ZN6NuiLib16ProjectionScalar14CalculateValueEv @321
    _ZN6NuiLib16ProjectionScalarC1Ev @322
    _ZN6NuiLib16ProjectionScalarC2Ev @323
    _ZN6NuiLib17ConditionalScalar11GetTypeNameEv @324
    _ZN6NuiLib17ConditionalScalar12SetConditionEPNS_10IConditionE @325
    _ZN6NuiLib17ConditionalScalar12SetConditionEb @326
    _ZN6NuiLib17ConditionalScalar14CalculateValueEv @327
    _ZN6NuiLib17ConditionalScalarC1Ev @328
    _ZN6NuiLib17ConditionalScalarC2Ev @329
    _ZN6NuiLib17ConstrainedScalar11GetDeadzoneEv @330
    _ZN6NuiLib17ConstrainedScalar11GetTypeNameEv @331
    _ZN6NuiLib17ConstrainedScalar11SetDeadzoneEPNS_7IScalarE @332
    _ZN6NuiLib17ConstrainedScalar11SetDeadzoneEf @333
    _ZN6NuiLib17ConstrainedScalar14CalculateValueEv @334
    _ZN6NuiLib17ConstrainedScalar5ToXMLEv @335
    _ZN6NuiLib17ConstrainedScalar7LoadXMLESs @336
    _ZN6NuiLib17ConstrainedScalar8GetGraceEv @337
    _ZN6NuiLib17ConstrainedScalar8GetRangeEv @338
    _ZN6NuiLib17ConstrainedScalar8SetGraceEPNS_7IScalarE @339
    _ZN6NuiLib17ConstrainedScalar8SetGraceEf @340
    _ZN6NuiLib17ConstrainedScalar8SetRangeEPNS_7IScalarE @341
    _ZN6NuiLib17ConstrainedScalar8SetRangeEf @342
    _ZN6NuiLib17ConstrainedScalar9GetMirrorEv @343
    _ZN6NuiLib17ConstrainedScalar9SetMirrorEb @344
    _ZN6NuiLib17ConstrainedScalarC1Ev @345
    _ZN6NuiLib17ConstrainedScalarC2Ev @346
    _ZN6NuiLib17NotEqualCondition11GetTypeNameEv @347
    _ZN6NuiLib17NotEqualConditionC1Ev @348
    _ZN6NuiLib17NotEqualConditionC2Ev @349
    _ZN6NuiLib18ConditionalOperandC1EPNS_10IConditionE @350
    _ZN6NuiLib18ConditionalOperandC1Eb @351
    _ZN6NuiLib18ConditionalOperandC1Ev @352
    _ZN6NuiLib18ConditionalOperandC2EPNS_10IConditionE @353
    _ZN6NuiLib18ConditionalOperandC2Eb @354
    _ZN6NuiLib18ConditionalOperandC2Ev @355
    _ZN6NuiLib18LessEqualCondition11GetTypeNameEv @356
    _ZN6NuiLib18LessEqualConditionC1Ev @357
    _ZN6NuiLib18LessEqualConditionC2Ev @358
    _ZN6NuiLib19ComparisonCondition14CalculateValueEv @359
    _ZN6NuiLib19ComparisonCondition14FactoryUpdatedEv @360
    _ZN6NuiLib19ComparisonCondition5ValueEv @361
    _ZN6NuiLib19ComparisonConditionC1ENS_8OperatorE @362
    _ZN6NuiLib19ComparisonConditionC2ENS_8OperatorE @363
    _ZN6NuiLib19ComparisonConditionD0Ev @364
    _ZN6NuiLib19ComparisonConditionD1Ev @365
    _ZN6NuiLib19ComparisonConditionD2Ev @366
    _ZN6NuiLib19MaxNormalizedScalar11GetTypeNameEv @367
    _ZN6NuiLib19MaxNormalizedScalar14CalculateValueEv @368
    _ZN6NuiLib19MaxNormalizedScalarC1Ev @369
    _ZN6NuiLib19MaxNormalizedScalarC2Ev @370
    _ZN6NuiLib19MaxNormalizedVector14CalculateValueEv @371
    _ZN6NuiLib19MaxNormalizedVector7GetNameEv @372
    _ZN6NuiLib19MaxNormalizedVector9MagnitudeEv @373
    _ZN6NuiLib19MaxNormalizedVectorC1EPNS_7IVectorE @374
    _ZN6NuiLib19MaxNormalizedVectorC1Ev @375
    _ZN6NuiLib19MaxNormalizedVectorC2EPNS_7IVectorE @376
    _ZN6NuiLib19MaxNormalizedVectorC2Ev @377
    _ZN6NuiLib1xERKNS_6VectorE @378
    _ZN6NuiLib1yERKNS_6VectorE @379
    _ZN6NuiLib1zERKNS_6VectorE @380
    _ZN6NuiLib20INuiFactoryExtension12GetConditionESs @381
    _ZN6NuiLib20INuiFactoryExtension17UnregisterCreatedEPNS_10IComponentE @382
    _ZN6NuiLib20INuiFactoryExtension5ToXMLEv @383
    _ZN6NuiLib20INuiFactoryExtension7LoadXMLESs @384
    _ZN6NuiLib20INuiFactoryExtension9GetScalarESs @385
    _ZN6NuiLib20INuiFactoryExtension9GetVectorESs @386
    _ZN6NuiLib20INuiFactoryExtensionC1ESsSs @387
    _ZN6NuiLib20INuiFactoryExtensionC2ESsSs @388
    _ZN6NuiLib20INuiFactoryExtensionD0Ev @389
    _ZN6NuiLib20INuiFactoryExtensionD1Ev @390
    _ZN6NuiLib20INuiFactoryExtensionD2Ev @391
    _ZN6NuiLib20ScalarWrappingScalar5ToXMLEv @392
    _ZN6NuiLib20ScalarWrappingScalar7LoadXMLESs @393
    _ZN6NuiLib20ScalarWrappingScalar9GetScalarEv @394
    _ZN6NuiLib20ScalarWrappingScalar9SetScalarEPNS_7IScalarE @395
    _ZN6NuiLib20ScalarWrappingScalarC1ESs @396
    _ZN6NuiLib20ScalarWrappingScalarC1ESsPNS_7IScalarE @397
    _ZN6NuiLib20ScalarWrappingScalarC1Ev @398
    _ZN6NuiLib20ScalarWrappingScalarC2ESs @399
    _ZN6NuiLib20ScalarWrappingScalarC2ESsPNS_7IScalarE @400
    _ZN6NuiLib20ScalarWrappingScalarC2Ev @401
    _ZN6NuiLib20VectorWrappingScalar5ToXMLEv @402
    _ZN6NuiLib20VectorWrappingScalar7LoadXMLESs @403
    _ZN6NuiLib20VectorWrappingScalar9GetVectorEv @404
    _ZN6NuiLib20VectorWrappingScalar9SetVectorEPNS_7IVectorE @405
    _ZN6NuiLib20VectorWrappingScalarC1ESs @406
    _ZN6NuiLib20VectorWrappingScalarC1ESsPNS_7IVectorE @407
    _ZN6NuiLib20VectorWrappingScalarC1Ev @408
    _ZN6NuiLib20VectorWrappingScalarC2ESs @409
    _ZN6NuiLib20VectorWrappingScalarC2ESsPNS_7IVectorE @410
    _ZN6NuiLib20VectorWrappingScalarC2Ev @411
    _ZN6NuiLib20VectorWrappingVector5ToXMLEv @412
    _ZN6NuiLib20VectorWrappingVector7LoadXMLESs @413
    _ZN6NuiLib20VectorWrappingVector9GetVectorEv @414
    _ZN6NuiLib20VectorWrappingVector9SetVectorEPNS_7IVectorE @415
    _ZN6NuiLib20VectorWrappingVectorC1ESs @416
    _ZN6NuiLib20VectorWrappingVectorC1ESsPNS_7IVectorE @417
    _ZN6NuiLib20VectorWrappingVectorC1Ev @418
    _ZN6NuiLib20VectorWrappingVectorC2ESs @419
    _ZN6NuiLib20VectorWrappingVectorC2ESsPNS_7IVectorE @420
    _ZN6NuiLib20VectorWrappingVectorC2Ev @421
    _ZN6NuiLib21GreaterEqualCondition11GetTypeNameEv @422
    _ZN6NuiLib21GreaterEqualConditionC1Ev @423
    _ZN6NuiLib21GreaterEqualConditionC2Ev @424
    _ZN6NuiLib21MagnitudeScaledVector14CalculateValueEv @425
    _ZN6NuiLib21MagnitudeScaledVector7GetNameEv @426
    _ZN6NuiLib21MagnitudeScaledVector8SetScaleEPNS_7IScalarE @427
    _ZN6NuiLib21MagnitudeScaledVector8SetScaleEf @428
    _ZN6NuiLib21MagnitudeScaledVectorC1EPNS_7IVectorEPNS_7IScalarE @429
    _ZN6NuiLib21MagnitudeScaledVectorC1EPNS_7IVectorEf @430
    _ZN6NuiLib21MagnitudeScaledVectorC1Ev @431
    _ZN6NuiLib21MagnitudeScaledVectorC2EPNS_7IVectorEPNS_7IScalarE @432
    _ZN6NuiLib21MagnitudeScaledVectorC2EPNS_7IVectorEf @433
    _ZN6NuiLib21MagnitudeScaledVectorC2Ev @434
    _ZN6NuiLib21NVectorWrappingVector12RemoveVectorEPNS_7IVectorE @435
    _ZN6NuiLib21NVectorWrappingVector14FactoryUpdatedEv @436
    _ZN6NuiLib21NVectorWrappingVector5ToXMLEv @437
    _ZN6NuiLib21NVectorWrappingVector7LoadXMLESs @438
    _ZN6NuiLib21NVectorWrappingVector9AddVectorEPNS_7IVectorE @439
    _ZN6NuiLib21NVectorWrappingVectorC1ESs @440
    _ZN6NuiLib21NVectorWrappingVectorC1Ev @441
    _ZN6NuiLib21NVectorWrappingVectorC2ESs @442
    _ZN6NuiLib21NVectorWrappingVectorC2Ev @443
    _ZN6NuiLib21ValueNormalizedScalar11GetTypeNameEv @444
    _ZN6NuiLib21ValueNormalizedScalar14CalculateValueEv @445
    _ZN6NuiLib21ValueNormalizedScalar6SetMaxEPNS_7IScalarE @446
    _ZN6NuiLib21ValueNormalizedScalar6SetMaxEf @447
    _ZN6NuiLib21ValueNormalizedScalarC1Ev @448
    _ZN6NuiLib21ValueNormalizedScalarC2Ev @449
    _ZN6NuiLib21ValueNormalizedVector14CalculateValueEv @450
    _ZN6NuiLib21ValueNormalizedVector7GetNameEv @451
    _ZN6NuiLib21ValueNormalizedVectorC1EPNS_7IVectorES2_ @452
    _ZN6NuiLib21ValueNormalizedVectorC1Ev @453
    _ZN6NuiLib21ValueNormalizedVectorC2EPNS_7IVectorES2_ @454
    _ZN6NuiLib21ValueNormalizedVectorC2Ev @455
    _ZN6NuiLib23NotEqualVectorCondition11GetTypeNameEv @456
    _ZN6NuiLib23NotEqualVectorCondition11SetOperand1Ef @457
    _ZN6NuiLib23NotEqualVectorCondition11SetOperand2Ef @458
    _ZN6NuiLib23NotEqualVectorCondition14CalculateValueEv @459
    _ZN6NuiLib23NotEqualVectorCondition14FactoryUpdatedEv @460
    _ZN6NuiLib23NotEqualVectorCondition5ValueEv @461
    _ZN6NuiLib23NotEqualVectorConditionC1Ev @462
    _ZN6NuiLib23NotEqualVectorConditionC2Ev @463
    _ZN6NuiLib23NotEqualVectorConditionD0Ev @464
    _ZN6NuiLib23NotEqualVectorConditionD1Ev @465
    _ZN6NuiLib23NotEqualVectorConditionD2Ev @466
    _ZN6NuiLib23PlaneIntersectionVector14CalculateValueEv @467
    _ZN6NuiLib23PlaneIntersectionVector14FactoryUpdatedEv @468
    _ZN6NuiLib23PlaneIntersectionVector5SetupEv @469
    _ZN6NuiLib23PlaneIntersectionVector7GetNameEv @470
    _ZN6NuiLib23PlaneIntersectionVectorC1EPNS_7IVectorES2_S2_S2_ @471
    _ZN6NuiLib23PlaneIntersectionVectorC1Ev @472
    _ZN6NuiLib23PlaneIntersectionVectorC2EPNS_7IVectorES2_S2_S2_ @473
    _ZN6NuiLib23PlaneIntersectionVectorC2Ev @474
    _ZN6NuiLib23TwoScalarWrappingScalar10GetScalar1Ev @475
    _ZN6NuiLib23TwoScalarWrappingScalar10GetScalar2Ev @476
    _ZN6NuiLib23TwoScalarWrappingScalar10SetScalar1EPNS_7IScalarE @477
    _ZN6NuiLib23TwoScalarWrappingScalar10SetScalar1Ef @478
    _ZN6NuiLib23TwoScalarWrappingScalar10SetScalar2EPNS_7IScalarE @479
    _ZN6NuiLib23TwoScalarWrappingScalar10SetScalar2Ef @480
    _ZN6NuiLib23TwoScalarWrappingScalar14FactoryUpdatedEv @481
    _ZN6NuiLib23TwoScalarWrappingScalar5ToXMLEv @482
    _ZN6NuiLib23TwoScalarWrappingScalar7LoadXMLESs @483
    _ZN6NuiLib23TwoScalarWrappingScalarC1ESs @484
    _ZN6NuiLib23TwoScalarWrappingScalarC1ESsPNS_7IScalarES2_ @485
    _ZN6NuiLib23TwoScalarWrappingScalarC1Ev @486
    _ZN6NuiLib23TwoScalarWrappingScalarC2ESs @487
    _ZN6NuiLib23TwoScalarWrappingScalarC2ESsPNS_7IScalarES2_ @488
    _ZN6NuiLib23TwoScalarWrappingScalarC2Ev @489
    _ZN6NuiLib23TwoVectorWrappingScalar10GetVector1Ev @490
    _ZN6NuiLib23TwoVectorWrappingScalar10GetVector2Ev @491
    _ZN6NuiLib23TwoVectorWrappingScalar10SetVector1EPNS_7IVectorE @492
    _ZN6NuiLib23TwoVectorWrappingScalar10SetVector2EPNS_7IVectorE @493
    _ZN6NuiLib23TwoVectorWrappingScalar14FactoryUpdatedEv @494
    _ZN6NuiLib23TwoVectorWrappingScalar5ToXMLEv @495
    _ZN6NuiLib23TwoVectorWrappingScalar7LoadXMLESs @496
    _ZN6NuiLib23TwoVectorWrappingScalarC1ESs @497
    _ZN6NuiLib23TwoVectorWrappingScalarC1ESsPNS_7IVectorES2_ @498
    _ZN6NuiLib23TwoVectorWrappingScalarC1Ev @499
    _ZN6NuiLib23TwoVectorWrappingScalarC2ESs @500
    _ZN6NuiLib23TwoVectorWrappingScalarC2ESsPNS_7IVectorES2_ @501
    _ZN6NuiLib23TwoVectorWrappingScalarC2Ev @502
    _ZN6NuiLib23TwoVectorWrappingVector10GetVector1Ev @503
    _ZN6NuiLib23TwoVectorWrappingVector10GetVector2Ev @504
    _ZN6NuiLib23TwoVectorWrappingVector10SetVector1EPNS_7IVectorE @505
    _ZN6NuiLib23TwoVectorWrappingVector10SetVector2EPNS_7IVectorE @506
    _ZN6NuiLib23TwoVectorWrappingVector14FactoryUpdatedEv @507
    _ZN6NuiLib23TwoVectorWrappingVector5ToXMLEv @508
    _ZN6NuiLib23TwoVectorWrappingVector7LoadXMLESs @509
    _ZN6NuiLib23TwoVectorWrappingVectorC1ESs @510
    _ZN6NuiLib23TwoVectorWrappingVectorC1ESsPNS_7IVectorES2_ @511
    _ZN6NuiLib23TwoVectorWrappingVectorC1Ev @512
    _ZN6NuiLib23TwoVectorWrappingVectorC2ESs @513
    _ZN6NuiLib23TwoVectorWrappingVectorC2ESsPNS_7IVectorES2_ @514
    _ZN6NuiLib23TwoVectorWrappingVectorC2Ev @515
    _ZN6NuiLib24FourVectorWrappingVector10GetVector4Ev @516
    _ZN6NuiLib24FourVectorWrappingVector10SetVector4EPNS_7IVectorE @517
    _ZN6NuiLib24FourVectorWrappingVector14FactoryUpdatedEv @518
    _ZN6NuiLib24FourVectorWrappingVector5ToXMLEv @519
    _ZN6NuiLib24FourVectorWrappingVector7LoadXMLESs @520
    _ZN6NuiLib24FourVectorWrappingVectorC1ESs @521
    _ZN6NuiLib24FourVectorWrappingVectorC1ESsPNS_7IVectorES2_S2_S2_ @522
    _ZN6NuiLib24FourVectorWrappingVectorC1Ev @523
    _ZN6NuiLib24FourVectorWrappingVectorC2ESs @524
    _ZN6NuiLib24FourVectorWrappingVectorC2ESsPNS_7IVectorES2_S2_S2_ @525
    _ZN6NuiLib24FourVectorWrappingVectorC2Ev @526
    _ZN6NuiLib25ThreeVectorWrappingVector10GetVector3Ev @527
    _ZN6NuiLib25ThreeVectorWrappingVector10SetVector3EPNS_7IVectorE @528
    _ZN6NuiLib25ThreeVectorWrappingVector14FactoryUpdatedEv @529
    _ZN6NuiLib25ThreeVectorWrappingVector5ToXMLEv @530
    _ZN6NuiLib25ThreeVectorWrappingVector7LoadXMLESs @531
    _ZN6NuiLib25ThreeVectorWrappingVectorC1ESs @532
    _ZN6NuiLib25ThreeVectorWrappingVectorC1ESsPNS_7IVectorES2_S2_ @533
    _ZN6NuiLib25ThreeVectorWrappingVectorC1Ev @534
    _ZN6NuiLib25ThreeVectorWrappingVectorC2ESs @535
    _ZN6NuiLib25ThreeVectorWrappingVectorC2ESsPNS_7IVectorES2_S2_ @536
    _ZN6NuiLib25ThreeVectorWrappingVectorC2Ev @537
    _ZN6NuiLib2xPEPNS_7IVectorE @538
    _ZN6NuiLib2yPEPNS_7IVectorE @539
    _ZN6NuiLib2zPEPNS_7IVectorE @540
    _ZN6NuiLib3absERKNS_6ScalarE @541
    _ZN6NuiLib3dotERKNS_6VectorES2_ @542
    _ZN6NuiLib3pOrEPNS_10IConditionES1_ @543
    _ZN6NuiLib3pOrEPNS_10IConditionEb @544
    _ZN6NuiLib3pOrEbPNS_10IConditionE @545
    _ZN6NuiLib3sumEN2cv7Point3_IfEEPNS_7IVectorE @546
    _ZN6NuiLib3sumEPNS_7IScalarES1_ @547
    _ZN6NuiLib3sumEPNS_7IScalarEf @548
    _ZN6NuiLib3sumEPNS_7IVectorEN2cv7Point3_IfEE @549
    _ZN6NuiLib3sumEPNS_7IVectorES1_ @550
    _ZN6NuiLib3sumEPNS_7IVectorEf @551
    _ZN6NuiLib3sumEfPNS_7IScalarE @552
    _ZN6NuiLib3sumEfPNS_7IVectorE @553
    _ZN6NuiLib4absPEPNS_7IScalarE @554
    _ZN6NuiLib4acosERKNS_6ScalarE @555
    _ZN6NuiLib4dotPEPNS_7IVectorES1_ @556
    _ZN6NuiLib4fistEb @557
    _ZN6NuiLib4holdERKNS_9ConditionE @558
    _ZN6NuiLib4pAndEPNS_10IConditionES1_ @559
    _ZN6NuiLib4pAndEPNS_10IConditionEb @560
    _ZN6NuiLib4pAndEbPNS_10IConditionE @561
    _ZN6NuiLib4pNotEPNS_10IConditionE @562
    _ZN6NuiLib5acosPEPNS_7IScalarE @563
    _ZN6NuiLib5clickERKNS_9ConditionE @564
    _ZN6NuiLib5crossERKNS_6VectorES2_ @565
    _ZN6NuiLib5deltaERKNS_6ScalarE @566
    _ZN6NuiLib5deltaERKNS_6VectorE @567
    _ZN6NuiLib5jointEi @568
    _ZN6NuiLib5limitERKNS_6VectorEbbb @569
    _ZN6NuiLib5pLessEPNS_7IScalarES1_ @570
    _ZN6NuiLib5pLessEPNS_7IScalarEf @571
    _ZN6NuiLib5pLessEfPNS_7IScalarE @572
    _ZN6NuiLib5scaleERKNS_6VectorERKNS_6ScalarE @573
    _ZN6NuiLib5scaleERKNS_6VectorEf @574
    _ZN6NuiLib6Scalar11AddListenerESt8functionIFvPNS_11IObservableEEE @575
    _ZN6NuiLib6Scalar3GetEv @576
    _ZN6NuiLib6ScalarC1EPNS_7IScalarE @577
    _ZN6NuiLib6ScalarC1ESsf @578
    _ZN6NuiLib6ScalarC1Ef @579
    _ZN6NuiLib6ScalarC1Ev @580
    _ZN6NuiLib6ScalarC2EPNS_7IScalarE @581
    _ZN6NuiLib6ScalarC2ESsf @582
    _ZN6NuiLib6ScalarC2Ef @583
    _ZN6NuiLib6ScalarC2Ev @584
    _ZN6NuiLib6ScalardeEv @585
    _ZN6NuiLib6Vector11AddListenerESt8functionIFvPNS_11IObservableEEE @586
    _ZN6NuiLib6Vector1XEv @587
    _ZN6NuiLib6Vector1YEv @588
    _ZN6NuiLib6Vector1ZEv @589
    _ZN6NuiLib6VectorC1EN2cv7Point3_IfEE @590
    _ZN6NuiLib6VectorC1EPNS_7IVectorE @591
    _ZN6NuiLib6VectorC1ERKNS_6ScalarE @592
    _ZN6NuiLib6VectorC1ERKNS_6ScalarES3_S3_ @593
    _ZN6NuiLib6VectorC1ERKNS_6ScalarES3_f @594
    _ZN6NuiLib6VectorC1ERKNS_6ScalarEfS3_ @595
    _ZN6NuiLib6VectorC1ERKNS_6ScalarEff @596
    _ZN6NuiLib6VectorC1ESsN2cv7Point3_IfEE @597
    _ZN6NuiLib6VectorC1ESsRKNS_6ScalarES3_S3_ @598
    _ZN6NuiLib6VectorC1ESsRKNS_6ScalarES3_f @599
    _ZN6NuiLib6VectorC1ESsRKNS_6ScalarEfS3_ @600
    _ZN6NuiLib6VectorC1ESsRKNS_6ScalarEff @601
    _ZN6NuiLib6VectorC1ESsf @602
    _ZN6NuiLib6VectorC1ESsfRKNS_6ScalarES3_ @603
    _ZN6NuiLib6VectorC1ESsfRKNS_6ScalarEf @604
    _ZN6NuiLib6VectorC1ESsffRKNS_6ScalarE @605
    _ZN6NuiLib6VectorC1ESsfff @606
    _ZN6NuiLib6VectorC1Ef @607
    _ZN6NuiLib6VectorC1EfRKNS_6ScalarES3_ @608
    _ZN6NuiLib6VectorC1EfRKNS_6ScalarEf @609
    _ZN6NuiLib6VectorC1EffRKNS_6ScalarE @610
    _ZN6NuiLib6VectorC1Efff @611
    _ZN6NuiLib6VectorC1Ev @612
    _ZN6NuiLib6VectorC2EN2cv7Point3_IfEE @613
    _ZN6NuiLib6VectorC2EPNS_7IVectorE @614
    _ZN6NuiLib6VectorC2ERKNS_6ScalarE @615
    _ZN6NuiLib6VectorC2ERKNS_6ScalarES3_S3_ @616
    _ZN6NuiLib6VectorC2ERKNS_6ScalarES3_f @617
    _ZN6NuiLib6VectorC2ERKNS_6ScalarEfS3_ @618
    _ZN6NuiLib6VectorC2ERKNS_6ScalarEff @619
    _ZN6NuiLib6VectorC2ESsN2cv7Point3_IfEE @620
    _ZN6NuiLib6VectorC2ESsRKNS_6ScalarES3_S3_ @621
    _ZN6NuiLib6VectorC2ESsRKNS_6ScalarES3_f @622
    _ZN6NuiLib6VectorC2ESsRKNS_6ScalarEfS3_ @623
    _ZN6NuiLib6VectorC2ESsRKNS_6ScalarEff @624
    _ZN6NuiLib6VectorC2ESsf @625
    _ZN6NuiLib6VectorC2ESsfRKNS_6ScalarES3_ @626
    _ZN6NuiLib6VectorC2ESsfRKNS_6ScalarEf @627
    _ZN6NuiLib6VectorC2ESsffRKNS_6ScalarE @628
    _ZN6NuiLib6VectorC2ESsfff @629
    _ZN6NuiLib6VectorC2Ef @630
    _ZN6NuiLib6VectorC2EfRKNS_6ScalarES3_ @631
    _ZN6NuiLib6VectorC2EfRKNS_6ScalarEf @632
    _ZN6NuiLib6VectorC2EffRKNS_6ScalarE @633
    _ZN6NuiLib6VectorC2Efff @634
    _ZN6NuiLib6VectorC2Ev @635
    _ZN6NuiLib6VectorixENS_4AXISE @636
    _ZN6NuiLib6crossPEPNS_7IVectorES1_ @637
    _ZN6NuiLib6deltaPEPNS_7IScalarE @638
    _ZN6NuiLib6deltaPEPNS_7IVectorE @639
    _ZN6NuiLib6invertERKNS_9ConditionE @640
    _ZN6NuiLib6limitPEPNS_7IVectorEbbb @641
    _ZN6NuiLib6scalePEPNS_7IVectorEPNS_7IScalarE @642
    _ZN6NuiLib6scalePEPNS_7IVectorEf @643
    _ZN6NuiLib7IScalar11GetTypeNameEv @644
    _ZN6NuiLib7IScalar14CalculateValueEv @645
    _ZN6NuiLib7IScalar3GetEv @646
    _ZN6NuiLib7IScalar3SetEf @647
    _ZN6NuiLib7IScalar5ToXMLEv @648
    _ZN6NuiLib7IScalar7ChangedEPNS_11IObservableE @649
    _ZN6NuiLib7IScalar7LoadXMLESs @650
    _ZN6NuiLib7IScalar8ToStringESs @651
    _ZN6NuiLib7IScalar8ToStringEi @652
    _ZN6NuiLib7IScalar8ToStringEv @653
    _ZN6NuiLib7IScalarC1ESs @654
    _ZN6NuiLib7IScalarC1ESsf @655
    _ZN6NuiLib7IScalarC1Ev @656
    _ZN6NuiLib7IScalarC2ESs @657
    _ZN6NuiLib7IScalarC2ESsf @658
    _ZN6NuiLib7IScalarC2Ev @659
    _ZN6NuiLib7IScalardeEv @660
    _ZN6NuiLib7IVector11GetTypeNameEv @661
    _ZN6NuiLib7IVector13MakeMagnitudeEi @662
    _ZN6NuiLib7IVector14CalculateValueEv @663
    _ZN6NuiLib7IVector1XEf @664
    _ZN6NuiLib7IVector1XEv @665
    _ZN6NuiLib7IVector1YEf @666
    _ZN6NuiLib7IVector1YEv @667
    _ZN6NuiLib7IVector1ZEf @668
    _ZN6NuiLib7IVector1ZEv @669
    _ZN6NuiLib7IVector3SetEfff @670
    _ZN6NuiLib7IVector4InitEfff @671
    _ZN6NuiLib7IVector5CrossEPS0_ @672
    _ZN6NuiLib7IVector5ToXMLEv @673
    _ZN6NuiLib7IVector7ChangedEPNS_11IObservableE @674
    _ZN6NuiLib7IVector7LoadXMLESs @675
    _ZN6NuiLib7IVector8MakeAxisEic @676
    _ZN6NuiLib7IVector8ToStringEi @677
    _ZN6NuiLib7IVector8ToStringEic @678
    _ZN6NuiLib7IVector8ToStringEv @679
    _ZN6NuiLib7IVector9MagnitudeEv @680
    _ZN6NuiLib7IVector9NormalizeEv @681
    _ZN6NuiLib7IVectorC1ESs @682
    _ZN6NuiLib7IVectorC1Ev @683
    _ZN6NuiLib7IVectorC2ESs @684
    _ZN6NuiLib7IVectorC2Ev @685
    _ZN6NuiLib7IVectordeEv @686
    _ZN6NuiLib7IVectorixENS_4AXISE @687
    _ZN6NuiLib7invertPEPNS_10IConditionE @688
    _ZN6NuiLib7productEN2cv7Point3_IfEEPNS_7IVectorE @689
    _ZN6NuiLib7productEPNS_7IScalarES1_ @690
    _ZN6NuiLib7productEPNS_7IScalarEf @691
    _ZN6NuiLib7productEPNS_7IVectorEN2cv7Point3_IfEE @692
    _ZN6NuiLib7productEPNS_7IVectorES1_ @693
    _ZN6NuiLib7productEPNS_7IVectorEf @694
    _ZN6NuiLib7productEfPNS_7IScalarE @695
    _ZN6NuiLib7productEfPNS_7IVectorE @696
    _ZN6NuiLib7projectERKNS_6VectorES2_ @697
    _ZN6NuiLib7trackerESsiffi @698
    _ZN6NuiLib7vectorPEPNS_7IScalarE @699
    _ZN6NuiLib7vectorPEPNS_7IScalarES1_S1_ @700
    _ZN6NuiLib7vectorPEPNS_7IScalarES1_f @701
    _ZN6NuiLib7vectorPEPNS_7IScalarEfS1_ @702
    _ZN6NuiLib7vectorPEPNS_7IScalarEff @703
    _ZN6NuiLib7vectorPEf @704
    _ZN6NuiLib7vectorPEfPNS_7IScalarES1_ @705
    _ZN6NuiLib7vectorPEfPNS_7IScalarEf @706
    _ZN6NuiLib7vectorPEffPNS_7IScalarE @707
    _ZN6NuiLib7vectorPEfff @708
    _ZN6NuiLib8ifScalarERKNS_9ConditionERKNS_6ScalarES5_ @709
    _ZN6NuiLib8ifScalarERKNS_9ConditionERKNS_6ScalarEf @710
    _ZN6NuiLib8ifScalarERKNS_9ConditionEfRKNS_6ScalarE @711
    _ZN6NuiLib8ifScalarERKNS_9ConditionEff @712
    _ZN6NuiLib8momentumERKNS_6VectorERKNS_9ConditionE @713
    _ZN6NuiLib8momentumERKNS_6VectorERKNS_9ConditionEff @714
    _ZN6NuiLib8pEqualToEPNS_7IScalarES1_ @715
    _ZN6NuiLib8pEqualToEPNS_7IScalarEf @716
    _ZN6NuiLib8pEqualToEfPNS_7IScalarE @717
    _ZN6NuiLib8pGreaterEPNS_7IScalarES1_ @718
    _ZN6NuiLib8pGreaterEPNS_7IScalarEf @719
    _ZN6NuiLib8pGreaterEfPNS_7IScalarE @720
    _ZN6NuiLib8projectPEPNS_7IVectorES1_ @721
    _ZN6NuiLib8quotientEN2cv7Point3_IfEEPNS_7IVectorE @722
    _ZN6NuiLib8quotientEPNS_7IScalarES1_ @723
    _ZN6NuiLib8quotientEPNS_7IScalarEf @724
    _ZN6NuiLib8quotientEPNS_7IVectorEN2cv7Point3_IfEE @725
    _ZN6NuiLib8quotientEPNS_7IVectorES1_ @726
    _ZN6NuiLib8quotientEPNS_7IVectorEf @727
    _ZN6NuiLib8quotientEfPNS_7IScalarE @728
    _ZN6NuiLib8quotientEfPNS_7IVectorE @729
    _ZN6NuiLib8snapshotERKNS_6VectorERKNS_9ConditionE @730
    _ZN6NuiLib8trackerPESsiffi @731
    _ZN6NuiLib9AbsScalar11GetTypeNameEv @732
    _ZN6NuiLib9AbsScalar14CalculateValueEv @733
    _ZN6NuiLib9AbsScalarC1Ev @734
    _ZN6NuiLib9AbsScalarC2Ev @735
    _ZN6NuiLib9Condition11AddListenerESt8functionIFvPNS_11IObservableEEE @736
    _ZN6NuiLib9Condition3GetEv @737
    _ZN6NuiLib9Condition6OnTrueESt8functionIFvPNS_11IObservableEEE @738
    _ZN6NuiLib9Condition7OnFalseESt8functionIFvPNS_11IObservableEEE @739
    _ZN6NuiLib9ConditionC1EPNS_10IConditionE @740
    _ZN6NuiLib9ConditionC1ESsb @741
    _ZN6NuiLib9ConditionC1Eb @742
    _ZN6NuiLib9ConditionC1Ev @743
    _ZN6NuiLib9ConditionC2EPNS_10IConditionE @744
    _ZN6NuiLib9ConditionC2ESsb @745
    _ZN6NuiLib9ConditionC2Eb @746
    _ZN6NuiLib9ConditionC2Ev @747
    _ZN6NuiLib9ConditiondeEv @748
    _ZN6NuiLib9DotScalar11GetTypeNameEv @749
    _ZN6NuiLib9DotScalar14CalculateValueEv @750
    _ZN6NuiLib9DotScalarC1Ev @751
    _ZN6NuiLib9DotScalarC2Ev @752
    _ZN6NuiLib9DotVector11GetTypeNameEv @753
    _ZN6NuiLib9DotVector14CalculateValueEv @754
    _ZN6NuiLib9DotVectorC1EPNS_7IVectorES2_ @755
    _ZN6NuiLib9DotVectorC1Ev @756
    _ZN6NuiLib9DotVectorC2EPNS_7IVectorES2_ @757
    _ZN6NuiLib9DotVectorC2Ev @758
    _ZN6NuiLib9IObserver13AddAsListenerEPNS_11IObservableES2_ @759
    _ZN6NuiLib9IObserver13StopObservingEv @760
    _ZN6NuiLib9IObserver16RemoveAsListenerEPNS_11IObservableE @761
    _ZN6NuiLib9IObserver18SetFactoryObserverEb @762
    _ZN6NuiLib9IObserverC1EPNS_11IObservableE @763
    _ZN6NuiLib9IObserverC1Ev @764
    _ZN6NuiLib9IObserverC2EPNS_11IObservableE @765
    _ZN6NuiLib9IObserverC2Ev @766
    _ZN6NuiLib9IObserverD0Ev @767
    _ZN6NuiLib9IObserverD1Ev @768
    _ZN6NuiLib9IObserverD2Ev @769
    _ZN6NuiLib9SumScalar11GetTypeNameEv @770
    _ZN6NuiLib9SumScalarC1Ev @771
    _ZN6NuiLib9SumScalarC2Ev @772
    _ZN6NuiLib9SumVector11GetTypeNameEv @773
    _ZN6NuiLib9SumVectorC1Ev @774
    _ZN6NuiLib9SumVectorC2Ev @775
    _ZN6NuiLib9constrainERKNS_6ScalarES2_S2_S2_b @776
    _ZN6NuiLib9constrainERKNS_6ScalarES2_S2_fb @777
    _ZN6NuiLib9constrainERKNS_6ScalarES2_fS2_b @778
    _ZN6NuiLib9constrainERKNS_6ScalarES2_ffb @779
    _ZN6NuiLib9constrainERKNS_6ScalarEfS2_S2_b @780
    _ZN6NuiLib9constrainERKNS_6ScalarEfS2_fb @781
    _ZN6NuiLib9constrainERKNS_6ScalarEffS2_b @782
    _ZN6NuiLib9constrainERKNS_6ScalarEfffb @783
    _ZN6NuiLib9ifScalarPEPNS_10IConditionEPNS_7IScalarES3_ @784
    _ZN6NuiLib9ifScalarPEPNS_10IConditionEPNS_7IScalarEf @785
    _ZN6NuiLib9ifScalarPEPNS_10IConditionEfPNS_7IScalarE @786
    _ZN6NuiLib9ifScalarPEPNS_10IConditionEff @787
    _ZN6NuiLib9intersectERKNS_6VectorES2_S2_S2_ @788
    _ZN6NuiLib9magnitudeERKNS_6VectorE @789
    _ZN6NuiLib9momentumPEPNS_7IVectorEPNS_10IConditionE @790
    _ZN6NuiLib9momentumPEPNS_7IVectorEPNS_10IConditionEff @791
    _ZN6NuiLib9normalizeERKNS_6ScalarE @792
    _ZN6NuiLib9normalizeERKNS_6ScalarES2_ @793
    _ZN6NuiLib9normalizeERKNS_6ScalarEf @794
    _ZN6NuiLib9normalizeERKNS_6VectorE @795
    _ZN6NuiLib9planeDotsERKNS_6VectorES2_ @796
    _ZN6NuiLib9snapshotPEPNS_7IVectorEPNS_10IConditionE @797
    _ZN6NuiLibaaERKNS_9ConditionES2_ @798
    _ZN6NuiLibaaERKNS_9ConditionEb @799
    _ZN6NuiLibaaEbRKNS_9ConditionE @800
    _ZN6NuiLibdVERNS_6ScalarERKS0_ @801
    _ZN6NuiLibdVERNS_6ScalarEf @802
    _ZN6NuiLibdVERNS_6VectorEN2cv7Point3_IfEE @803
    _ZN6NuiLibdVERNS_6VectorERKS0_ @804
    _ZN6NuiLibdVERNS_6VectorEf @805
    _ZN6NuiLibdvEN2cv7Point3_IfEERKNS_6VectorE @806
    _ZN6NuiLibdvERKNS_6ScalarES2_ @807
    _ZN6NuiLibdvERKNS_6ScalarEf @808
    _ZN6NuiLibdvERKNS_6VectorEN2cv7Point3_IfEE @809
    _ZN6NuiLibdvERKNS_6VectorES2_ @810
    _ZN6NuiLibdvERKNS_6VectorEf @811
    _ZN6NuiLibdvEfRKNS_6ScalarE @812
    _ZN6NuiLibdvEfRKNS_6VectorE @813
    _ZN6NuiLibeqERKNS_6ScalarES2_ @814
    _ZN6NuiLibeqERKNS_6ScalarEf @815
    _ZN6NuiLibeqEfRKNS_6ScalarE @816
    _ZN6NuiLibgeERKNS_6ScalarES2_ @817
    _ZN6NuiLibgeERKNS_6ScalarEf @818
    _ZN6NuiLibgeEfRKNS_6ScalarE @819
    _ZN6NuiLibgtERKNS_6ScalarES2_ @820
    _ZN6NuiLibgtERKNS_6ScalarEf @821
    _ZN6NuiLibgtEfRKNS_6ScalarE @822
    _ZN6NuiLibleERKNS_6ScalarES2_ @823
    _ZN6NuiLibleERKNS_6ScalarEf @824
    _ZN6NuiLibleEfRKNS_6ScalarE @825
    _ZN6NuiLibltERKNS_6ScalarES2_ @826
    _ZN6NuiLibltERKNS_6ScalarEf @827
    _ZN6NuiLibltEfRKNS_6ScalarE @828
    _ZN6NuiLibmIERNS_6ScalarERKS0_ @829
    _ZN6NuiLibmIERNS_6ScalarEf @830
    _ZN6NuiLibmIERNS_6VectorEN2cv7Point3_IfEE @831
    _ZN6NuiLibmIERNS_6VectorERKS0_ @832
    _ZN6NuiLibmIERNS_6VectorEf @833
    _ZN6NuiLibmLERNS_6ScalarERKS0_ @834
    _ZN6NuiLibmLERNS_6ScalarEf @835
    _ZN6NuiLibmLERNS_6VectorEN2cv7Point3_IfEE @836
    _ZN6NuiLibmLERNS_6VectorERKS0_ @837
    _ZN6NuiLibmLERNS_6VectorEf @838
    _ZN6NuiLibmiEN2cv7Point3_IfEERKNS_6VectorE @839
    _ZN6NuiLibmiERKNS_6ScalarES2_ @840
    _ZN6NuiLibmiERKNS_6ScalarEf @841
    _ZN6NuiLibmiERKNS_6VectorEN2cv7Point3_IfEE @842
    _ZN6NuiLibmiERKNS_6VectorES2_ @843
    _ZN6NuiLibmiERKNS_6VectorEf @844
    _ZN6NuiLibmiEfRKNS_6ScalarE @845
    _ZN6NuiLibmiEfRKNS_6VectorE @846
    _ZN6NuiLibmlEN2cv7Point3_IfEERKNS_6VectorE @847
    _ZN6NuiLibmlERKNS_6ScalarES2_ @848
    _ZN6NuiLibmlERKNS_6ScalarEf @849
    _ZN6NuiLibmlERKNS_6VectorEN2cv7Point3_IfEE @850
    _ZN6NuiLibmlERKNS_6VectorES2_ @851
    _ZN6NuiLibmlERKNS_6VectorEf @852
    _ZN6NuiLibmlEfRKNS_6ScalarE @853
    _ZN6NuiLibmlEfRKNS_6VectorE @854
    _ZN6NuiLibneEN2cv7Point3_IfEERKNS_6VectorE @855
    _ZN6NuiLibneERKNS_6ScalarES2_ @856
    _ZN6NuiLibneERKNS_6ScalarEf @857
    _ZN6NuiLibneERKNS_6VectorEN2cv7Point3_IfEE @858
    _ZN6NuiLibneERKNS_6VectorES2_ @859
    _ZN6NuiLibneERKNS_6VectorEf @860
    _ZN6NuiLibneEfRKNS_6ScalarE @861
    _ZN6NuiLibneEfRKNS_6VectorE @862
    _ZN6NuiLibntERKNS_9ConditionE @863
    _ZN6NuiLibooERKNS_9ConditionES2_ @864
    _ZN6NuiLibooERKNS_9ConditionEb @865
    _ZN6NuiLibooEbRKNS_9ConditionE @866
    _ZN6NuiLibpLERNS_6ScalarERKS0_ @867
    _ZN6NuiLibpLERNS_6ScalarEf @868
    _ZN6NuiLibpLERNS_6VectorEN2cv7Point3_IfEE @869
    _ZN6NuiLibpLERNS_6VectorERKS0_ @870
    _ZN6NuiLibpLERNS_6VectorEf @871
    _ZN6NuiLibplEN2cv7Point3_IfEERKNS_6VectorE @872
    _ZN6NuiLibplERKNS_6ScalarES2_ @873
    _ZN6NuiLibplERKNS_6ScalarEf @874
    _ZN6NuiLibplERKNS_6VectorEN2cv7Point3_IfEE @875
    _ZN6NuiLibplERKNS_6VectorES2_ @876
    _ZN6NuiLibplERKNS_6VectorEf @877
    _ZN6NuiLibplEfRKNS_6ScalarE @878
    _ZN6NuiLibplEfRKNS_6VectorE @879
    _ZTVN6NuiLib10ACosScalarE @880 DATA
    _ZTVN6NuiLib10IComponentE @881 DATA
    _ZTVN6NuiLib10IConditionE @882 DATA
    _ZTVN6NuiLib11CrossVectorE @883 DATA
    _ZTVN6NuiLib11DeltaScalarE @884 DATA
    _ZTVN6NuiLib11DeltaVectorE @885 DATA
    _ZTVN6NuiLib11INuiFactoryE @886 DATA
    _ZTVN6NuiLib11IObservableE @887 DATA
    _ZTVN6NuiLib11JointVectorE @888 DATA
    _ZTVN6NuiLib11KinectJointE @889 DATA
    _ZTVN6NuiLib11OrConditionE @890 DATA
    _ZTVN6NuiLib12AndConditionE @891 DATA
    _ZTVN6NuiLib12InvertScalarE @892 DATA
    _ZTVN6NuiLib12NotConditionE @893 DATA
    _ZTVN6NuiLib12ScalarVectorE @894 DATA
    _ZTVN6NuiLib12VectorScalarE @895 DATA
    _ZTVN6NuiLib13FistConditionE @896 DATA
    _ZTVN6NuiLib13HandProcessorE @897 DATA
    _ZTVN6NuiLib13HoldConditionE @898 DATA
    _ZTVN6NuiLib13KinectFactoryE @899 DATA
    _ZTVN6NuiLib13LessConditionE @900 DATA
    _ZTVN6NuiLib13PartialVectorE @901 DATA
    _ZTVN6NuiLib13ProductScalarE @902 DATA
    _ZTVN6NuiLib13ProductVectorE @903 DATA
    _ZTVN6NuiLib13TrackerScalarE @904 DATA
    _ZTVN6NuiLib14ClickConditionE @905 DATA
    _ZTVN6NuiLib14EqualConditionE @906 DATA
    _ZTVN6NuiLib14LogicConditionE @907 DATA
    _ZTVN6NuiLib14MomentumVectorE @908 DATA
    _ZTVN6NuiLib14QuotientScalarE @909 DATA
    _ZTVN6NuiLib14QuotientVectorE @910 DATA
    _ZTVN6NuiLib14SnapshotVectorE @911 DATA
    _ZTVN6NuiLib16ArithmeticScalarE @912 DATA
    _ZTVN6NuiLib16ArithmeticVectorE @913 DATA
    _ZTVN6NuiLib16DifferenceScalarE @914 DATA
    _ZTVN6NuiLib16DifferenceVectorE @915 DATA
    _ZTVN6NuiLib16GreaterConditionE @916 DATA
    _ZTVN6NuiLib16NormalizedVectorE @917 DATA
    _ZTVN6NuiLib16ProjectionScalarE @918 DATA
    _ZTVN6NuiLib17ConditionalScalarE @919 DATA
    _ZTVN6NuiLib17ConstrainedScalarE @920 DATA
    _ZTVN6NuiLib17NotEqualConditionE @921 DATA
    _ZTVN6NuiLib18LessEqualConditionE @922 DATA
    _ZTVN6NuiLib19ComparisonConditionE @923 DATA
    _ZTVN6NuiLib19MaxNormalizedScalarE @924 DATA
    _ZTVN6NuiLib19MaxNormalizedVectorE @925 DATA
    _ZTVN6NuiLib20INuiFactoryExtensionE @926 DATA
    _ZTVN6NuiLib20ScalarWrappingScalarE @927 DATA
    _ZTVN6NuiLib20VectorWrappingScalarE @928 DATA
    _ZTVN6NuiLib20VectorWrappingVectorE @929 DATA
    _ZTVN6NuiLib21GreaterEqualConditionE @930 DATA
    _ZTVN6NuiLib21MagnitudeScaledVectorE @931 DATA
    _ZTVN6NuiLib21NVectorWrappingVectorE @932 DATA
    _ZTVN6NuiLib21ValueNormalizedScalarE @933 DATA
    _ZTVN6NuiLib21ValueNormalizedVectorE @934 DATA
    _ZTVN6NuiLib23NotEqualVectorConditionE @935 DATA
    _ZTVN6NuiLib23PlaneIntersectionVectorE @936 DATA
    _ZTVN6NuiLib23TwoScalarWrappingScalarE @937 DATA
    _ZTVN6NuiLib23TwoVectorWrappingScalarE @938 DATA
    _ZTVN6NuiLib23TwoVectorWrappingVectorE @939 DATA
    _ZTVN6NuiLib24FourVectorWrappingVectorE @940 DATA
    _ZTVN6NuiLib25ThreeVectorWrappingVectorE @941 DATA
    _ZTVN6NuiLib7IScalarE @942 DATA
    _ZTVN6NuiLib7IVectorE @943 DATA
    _ZTVN6NuiLib9AbsScalarE @944 DATA
    _ZTVN6NuiLib9DotScalarE @945 DATA
    _ZTVN6NuiLib9DotVectorE @946 DATA
    _ZTVN6NuiLib9IObserverE @947 DATA
    _ZTVN6NuiLib9SumScalarE @948 DATA
    _ZTVN6NuiLib9SumVectorE @949 DATA
    _ZThn36_N6NuiLib13HandProcessor7ChangedEPNS_11IObservableE @950
    _ZThn36_N6NuiLib13HandProcessorD0Ev @951
    _ZThn36_N6NuiLib13HandProcessorD1Ev @952
    _ZThn44_N6NuiLib10ACosScalarD0Ev @953
    _ZThn44_N6NuiLib10ACosScalarD1Ev @954
    _ZThn44_N6NuiLib10ICondition7ChangedEPNS_11IObservableE @955
    _ZThn44_N6NuiLib10IConditionD0Ev @956
    _ZThn44_N6NuiLib10IConditionD1Ev @957
    _ZThn44_N6NuiLib11CrossVectorD0Ev @958
    _ZThn44_N6NuiLib11CrossVectorD1Ev @959
    _ZThn44_N6NuiLib11DeltaScalarD0Ev @960
    _ZThn44_N6NuiLib11DeltaScalarD1Ev @961
    _ZThn44_N6NuiLib11DeltaVectorD0Ev @962
    _ZThn44_N6NuiLib11DeltaVectorD1Ev @963
    _ZThn44_N6NuiLib11JointVectorD0Ev @964
    _ZThn44_N6NuiLib11JointVectorD1Ev @965
    _ZThn44_N6NuiLib11OrConditionD0Ev @966
    _ZThn44_N6NuiLib11OrConditionD1Ev @967
    _ZThn44_N6NuiLib12AndConditionD0Ev @968
    _ZThn44_N6NuiLib12AndConditionD1Ev @969
    _ZThn44_N6NuiLib12InvertScalarD0Ev @970
    _ZThn44_N6NuiLib12InvertScalarD1Ev @971
    _ZThn44_N6NuiLib12NotConditionD0Ev @972
    _ZThn44_N6NuiLib12NotConditionD1Ev @973
    _ZThn44_N6NuiLib12ScalarVectorD0Ev @974
    _ZThn44_N6NuiLib12ScalarVectorD1Ev @975
    _ZThn44_N6NuiLib12VectorScalarD0Ev @976
    _ZThn44_N6NuiLib12VectorScalarD1Ev @977
    _ZThn44_N6NuiLib13FistConditionD0Ev @978
    _ZThn44_N6NuiLib13FistConditionD1Ev @979
    _ZThn44_N6NuiLib13HoldConditionD0Ev @980
    _ZThn44_N6NuiLib13HoldConditionD1Ev @981
    _ZThn44_N6NuiLib13LessConditionD0Ev @982
    _ZThn44_N6NuiLib13LessConditionD1Ev @983
    _ZThn44_N6NuiLib13PartialVectorD0Ev @984
    _ZThn44_N6NuiLib13PartialVectorD1Ev @985
    _ZThn44_N6NuiLib13ProductScalarD0Ev @986
    _ZThn44_N6NuiLib13ProductScalarD1Ev @987
    _ZThn44_N6NuiLib13ProductVectorD0Ev @988
    _ZThn44_N6NuiLib13ProductVectorD1Ev @989
    _ZThn44_N6NuiLib13TrackerScalarD0Ev @990
    _ZThn44_N6NuiLib13TrackerScalarD1Ev @991
    _ZThn44_N6NuiLib14ClickConditionD0Ev @992
    _ZThn44_N6NuiLib14ClickConditionD1Ev @993
    _ZThn44_N6NuiLib14EqualConditionD0Ev @994
    _ZThn44_N6NuiLib14EqualConditionD1Ev @995
    _ZThn44_N6NuiLib14LogicConditionD0Ev @996
    _ZThn44_N6NuiLib14LogicConditionD1Ev @997
    _ZThn44_N6NuiLib14MomentumVectorD0Ev @998
    _ZThn44_N6NuiLib14MomentumVectorD1Ev @999
    _ZThn44_N6NuiLib14QuotientScalarD0Ev @1000
    _ZThn44_N6NuiLib14QuotientScalarD1Ev @1001
    _ZThn44_N6NuiLib14QuotientVectorD0Ev @1002
    _ZThn44_N6NuiLib14QuotientVectorD1Ev @1003
    _ZThn44_N6NuiLib14SnapshotVectorD0Ev @1004
    _ZThn44_N6NuiLib14SnapshotVectorD1Ev @1005
    _ZThn44_N6NuiLib16ArithmeticScalarD0Ev @1006
    _ZThn44_N6NuiLib16ArithmeticScalarD1Ev @1007
    _ZThn44_N6NuiLib16ArithmeticVectorD0Ev @1008
    _ZThn44_N6NuiLib16ArithmeticVectorD1Ev @1009
    _ZThn44_N6NuiLib16DifferenceScalarD0Ev @1010
    _ZThn44_N6NuiLib16DifferenceScalarD1Ev @1011
    _ZThn44_N6NuiLib16DifferenceVectorD0Ev @1012
    _ZThn44_N6NuiLib16DifferenceVectorD1Ev @1013
    _ZThn44_N6NuiLib16GreaterConditionD0Ev @1014
    _ZThn44_N6NuiLib16GreaterConditionD1Ev @1015
    _ZThn44_N6NuiLib16NormalizedVectorD0Ev @1016
    _ZThn44_N6NuiLib16NormalizedVectorD1Ev @1017
    _ZThn44_N6NuiLib16ProjectionScalarD0Ev @1018
    _ZThn44_N6NuiLib16ProjectionScalarD1Ev @1019
    _ZThn44_N6NuiLib17ConditionalScalarD0Ev @1020
    _ZThn44_N6NuiLib17ConditionalScalarD1Ev @1021
    _ZThn44_N6NuiLib17ConstrainedScalarD0Ev @1022
    _ZThn44_N6NuiLib17ConstrainedScalarD1Ev @1023
    _ZThn44_N6NuiLib17NotEqualConditionD0Ev @1024
    _ZThn44_N6NuiLib17NotEqualConditionD1Ev @1025
    _ZThn44_N6NuiLib18LessEqualConditionD0Ev @1026
    _ZThn44_N6NuiLib18LessEqualConditionD1Ev @1027
    _ZThn44_N6NuiLib19ComparisonConditionD0Ev @1028
    _ZThn44_N6NuiLib19ComparisonConditionD1Ev @1029
    _ZThn44_N6NuiLib19MaxNormalizedScalarD0Ev @1030
    _ZThn44_N6NuiLib19MaxNormalizedScalarD1Ev @1031
    _ZThn44_N6NuiLib19MaxNormalizedVectorD0Ev @1032
    _ZThn44_N6NuiLib19MaxNormalizedVectorD1Ev @1033
    _ZThn44_N6NuiLib20ScalarWrappingScalarD0Ev @1034
    _ZThn44_N6NuiLib20ScalarWrappingScalarD1Ev @1035
    _ZThn44_N6NuiLib20VectorWrappingScalarD0Ev @1036
    _ZThn44_N6NuiLib20VectorWrappingScalarD1Ev @1037
    _ZThn44_N6NuiLib20VectorWrappingVectorD0Ev @1038
    _ZThn44_N6NuiLib20VectorWrappingVectorD1Ev @1039
    _ZThn44_N6NuiLib21GreaterEqualConditionD0Ev @1040
    _ZThn44_N6NuiLib21GreaterEqualConditionD1Ev @1041
    _ZThn44_N6NuiLib21MagnitudeScaledVectorD0Ev @1042
    _ZThn44_N6NuiLib21MagnitudeScaledVectorD1Ev @1043
    _ZThn44_N6NuiLib21NVectorWrappingVectorD0Ev @1044
    _ZThn44_N6NuiLib21NVectorWrappingVectorD1Ev @1045
    _ZThn44_N6NuiLib21ValueNormalizedScalarD0Ev @1046
    _ZThn44_N6NuiLib21ValueNormalizedScalarD1Ev @1047
    _ZThn44_N6NuiLib21ValueNormalizedVectorD0Ev @1048
    _ZThn44_N6NuiLib21ValueNormalizedVectorD1Ev @1049
    _ZThn44_N6NuiLib23NotEqualVectorConditionD0Ev @1050
    _ZThn44_N6NuiLib23NotEqualVectorConditionD1Ev @1051
    _ZThn44_N6NuiLib23PlaneIntersectionVectorD0Ev @1052
    _ZThn44_N6NuiLib23PlaneIntersectionVectorD1Ev @1053
    _ZThn44_N6NuiLib23TwoScalarWrappingScalarD0Ev @1054
    _ZThn44_N6NuiLib23TwoScalarWrappingScalarD1Ev @1055
    _ZThn44_N6NuiLib23TwoVectorWrappingScalarD0Ev @1056
    _ZThn44_N6NuiLib23TwoVectorWrappingScalarD1Ev @1057
    _ZThn44_N6NuiLib23TwoVectorWrappingVectorD0Ev @1058
    _ZThn44_N6NuiLib23TwoVectorWrappingVectorD1Ev @1059
    _ZThn44_N6NuiLib24FourVectorWrappingVectorD0Ev @1060
    _ZThn44_N6NuiLib24FourVectorWrappingVectorD1Ev @1061
    _ZThn44_N6NuiLib25ThreeVectorWrappingVectorD0Ev @1062
    _ZThn44_N6NuiLib25ThreeVectorWrappingVectorD1Ev @1063
    _ZThn44_N6NuiLib7IScalar7ChangedEPNS_11IObservableE @1064
    _ZThn44_N6NuiLib7IScalarD0Ev @1065
    _ZThn44_N6NuiLib7IScalarD1Ev @1066
    _ZThn44_N6NuiLib7IVector7ChangedEPNS_11IObservableE @1067
    _ZThn44_N6NuiLib7IVectorD0Ev @1068
    _ZThn44_N6NuiLib7IVectorD1Ev @1069
    _ZThn44_N6NuiLib9AbsScalarD0Ev @1070
    _ZThn44_N6NuiLib9AbsScalarD1Ev @1071
    _ZThn44_N6NuiLib9DotScalarD0Ev @1072
    _ZThn44_N6NuiLib9DotScalarD1Ev @1073
    _ZThn44_N6NuiLib9DotVectorD0Ev @1074
    _ZThn44_N6NuiLib9DotVectorD1Ev @1075
    _ZThn44_N6NuiLib9SumScalarD0Ev @1076
    _ZThn44_N6NuiLib9SumScalarD1Ev @1077
    _ZThn44_N6NuiLib9SumVectorD0Ev @1078
    _ZThn44_N6NuiLib9SumVectorD1Ev @1079
    _ZThn48_N6NuiLib11KinectJointD0Ev @1080
    _ZThn48_N6NuiLib11KinectJointD1Ev @1081
    _ZThn4_N6NuiLib11KinectJoint5ToXMLEv @1082
    _ZThn4_N6NuiLib11KinectJoint7LoadXMLESs @1083
    _ZThn4_N6NuiLib11KinectJoint8SetJointESs @1084
    _ZThn4_N6NuiLib11KinectJointD0Ev @1085
    _ZThn4_N6NuiLib11KinectJointD1Ev @1086
    _ZThn68_N6NuiLib13ProductScalarD0Ev @1087
    _ZThn68_N6NuiLib13ProductScalarD1Ev @1088
    _ZThn68_N6NuiLib14QuotientScalarD0Ev @1089
    _ZThn68_N6NuiLib14QuotientScalarD1Ev @1090
    _ZThn68_N6NuiLib16ArithmeticScalarD0Ev @1091
    _ZThn68_N6NuiLib16ArithmeticScalarD1Ev @1092
    _ZThn68_N6NuiLib16DifferenceScalarD0Ev @1093
    _ZThn68_N6NuiLib16DifferenceScalarD1Ev @1094
    _ZThn68_N6NuiLib9SumScalarD0Ev @1095
    _ZThn68_N6NuiLib9SumScalarD1Ev @1096
    _ZThn80_N6NuiLib11OrConditionD0Ev @1097
    _ZThn80_N6NuiLib11OrConditionD1Ev @1098
    _ZThn80_N6NuiLib12AndConditionD0Ev @1099
    _ZThn80_N6NuiLib12AndConditionD1Ev @1100
    _ZThn80_N6NuiLib13LessConditionD0Ev @1101
    _ZThn80_N6NuiLib13LessConditionD1Ev @1102
    _ZThn80_N6NuiLib14EqualConditionD0Ev @1103
    _ZThn80_N6NuiLib14EqualConditionD1Ev @1104
    _ZThn80_N6NuiLib14LogicConditionD0Ev @1105
    _ZThn80_N6NuiLib14LogicConditionD1Ev @1106
    _ZThn80_N6NuiLib16GreaterConditionD0Ev @1107
    _ZThn80_N6NuiLib16GreaterConditionD1Ev @1108
    _ZThn80_N6NuiLib17NotEqualConditionD0Ev @1109
    _ZThn80_N6NuiLib17NotEqualConditionD1Ev @1110
    _ZThn80_N6NuiLib18LessEqualConditionD0Ev @1111
    _ZThn80_N6NuiLib18LessEqualConditionD1Ev @1112
    _ZThn80_N6NuiLib19ComparisonConditionD0Ev @1113
    _ZThn80_N6NuiLib19ComparisonConditionD1Ev @1114
    _ZThn80_N6NuiLib21GreaterEqualConditionD0Ev @1115
    _ZThn80_N6NuiLib21GreaterEqualConditionD1Ev @1116
    _ZThn80_N6NuiLib23NotEqualVectorConditionD0Ev @1117
    _ZThn80_N6NuiLib23NotEqualVectorConditionD1Ev @1118
    _ZThn88_N6NuiLib13ProductVectorD0Ev @1119
    _ZThn88_N6NuiLib13ProductVectorD1Ev @1120
    _ZThn88_N6NuiLib14QuotientVectorD0Ev @1121
    _ZThn88_N6NuiLib14QuotientVectorD1Ev @1122
    _ZThn88_N6NuiLib16ArithmeticVectorD0Ev @1123
    _ZThn88_N6NuiLib16ArithmeticVectorD1Ev @1124
    _ZThn88_N6NuiLib16DifferenceVectorD0Ev @1125
    _ZThn88_N6NuiLib16DifferenceVectorD1Ev @1126
    _ZThn88_N6NuiLib9SumVectorD0Ev @1127
    _ZThn88_N6NuiLib9SumVectorD1Ev @1128
